target datalayout = "e-m:e-p270:32:32-p271:32:32-p272:64:64-i64:64-i128:128-f80:128-n8:16:32:64-S128"
target triple = "x86_64-pc-linux-gnu"

%struct.tMPI_Thread_key_t = type { %struct.tMPI_Atomic, ptr }
%struct.tMPI_Atomic = type { i32, [60 x i8] }
%struct.tmpi_comm_ = type { %struct.tmpi_group_, %struct.tMPI_Barrier_t, ptr, ptr, i32, ptr, ptr, ptr, ptr, %struct.tMPI_Thread_mutex_t, %struct.tMPI_Thread_cond_t, %struct.tMPI_Thread_cond_t, ptr, ptr, ptr, ptr, ptr, ptr, %struct.tMPI_Atomic }
%struct.tmpi_group_ = type { i32, ptr }
%struct.tMPI_Barrier_t = type { %struct.tMPI_Atomic, i32, %struct.tMPI_Atomic }
%struct.tMPI_Thread_mutex_t = type { %struct.tMPI_Atomic, ptr }
%struct.tMPI_Thread_cond_t = type { %struct.tMPI_Atomic, ptr }
%struct.tmpi_thread = type { ptr, %struct.recv_envelope_list, ptr, %struct.free_envelope_list, %struct.tMPI_Atomic, %struct.tMPI_Event_t, %struct.req_list, ptr, ptr, ptr, ptr, i32, ptr }
%struct.recv_envelope_list = type { ptr, %struct.envelope }
%struct.envelope = type { i32, ptr, ptr, ptr, ptr, i64, ptr, i32, %struct.tMPI_Atomic, i32, ptr, ptr, i32, ptr, ptr, ptr, ptr }
%struct.free_envelope_list = type { ptr, ptr }
%struct.tMPI_Event_t = type { %struct.tMPI_Atomic, i32 }
%struct.req_list = type { ptr, ptr }

@id_key = external global %struct.tMPI_Thread_key_t, align 8
@TMPI_COMM_WORLD = external global ptr, align 8

; Function Attrs: mustprogress uwtable
define noundef i32 @_Z10tMPI_IrecvPviP14tmpi_datatype_iiP10tmpi_comm_PP9tmpi_req_(ptr noundef %0, i32 noundef %1, ptr noundef %2, i32 noundef %3, i32 noundef %4, ptr noundef %5, ptr noundef %6) #0 {
  %8 = alloca i32, align 4
  %9 = alloca ptr, align 8
  %10 = alloca i32, align 4
  %11 = alloca ptr, align 8
  %12 = alloca i32, align 4
  %13 = alloca i32, align 4
  %14 = alloca ptr, align 8
  %15 = alloca ptr, align 8
  %16 = alloca ptr, align 8
  %17 = alloca %struct.tMPI_Thread_key_t, align 8
  %18 = alloca ptr, align 8
  %19 = alloca ptr, align 8
  %20 = alloca ptr, align 8
  %21 = alloca ptr, align 8
  store ptr %0, ptr %9, align 8
  store i32 %1, ptr %10, align 4
  store ptr %2, ptr %11, align 8
  store i32 %3, ptr %12, align 4
  store i32 %4, ptr %13, align 4
  store ptr %5, ptr %14, align 8
  store ptr %6, ptr %15, align 8
  call void @llvm.memcpy.p0.p0.i64(ptr align 8 %17, ptr align 8 @id_key, i64 72, i1 false)
  %22 = call noundef ptr @_Z23tMPI_Thread_getspecific17tMPI_Thread_key_t(ptr noundef byval(%struct.tMPI_Thread_key_t) align 8 %17)
  store ptr %22, ptr %16, align 8
  %23 = load ptr, ptr %16, align 8
  %24 = getelementptr inbounds %struct.tmpi_thread, ptr %23, i32 0, i32 6
  store ptr %24, ptr %18, align 8
  %25 = load ptr, ptr %18, align 8
  %26 = call noundef ptr @_Z12tMPI_Get_reqP8req_list(ptr noundef %25)
  store ptr %26, ptr %19, align 8
  store ptr null, ptr %20, align 8
  %27 = load ptr, ptr %14, align 8
  %28 = icmp ne ptr %27, null
  br i1 %28, label %34, label %29

29:                                               ; preds = %7
  %30 = load ptr, ptr %18, align 8
  %31 = load ptr, ptr %19, align 8
  call void @_Z15tMPI_Return_reqP8req_listP9tmpi_req_(ptr noundef %30, ptr noundef %31)
  %32 = load ptr, ptr @TMPI_COMM_WORLD, align 8
  %33 = call noundef i32 @_Z10tMPI_ErrorP10tmpi_comm_i(ptr noundef %32, i32 noundef 6)
  store i32 %33, ptr %8, align 4
  br label %74

34:                                               ; preds = %7
  %35 = load i32, ptr %12, align 4
  %36 = icmp ne i32 %35, -1
  br i1 %36, label %37, label %54

37:                                               ; preds = %34
  %38 = load ptr, ptr %14, align 8
  %39 = getelementptr inbounds %struct.tmpi_comm_, ptr %38, i32 0, i32 0
  %40 = getelementptr inbounds %struct.tmpi_group_, ptr %39, i32 0, i32 1
  %41 = load ptr, ptr %40, align 8
  %42 = load i32, ptr %12, align 4
  %43 = sext i32 %42 to i64
  %44 = getelementptr inbounds ptr, ptr %41, i64 %43
  %45 = load ptr, ptr %44, align 8
  store ptr %45, ptr %20, align 8
  %46 = load ptr, ptr %20, align 8
  %47 = icmp ne ptr %46, null
  br i1 %47, label %53, label %48

48:                                               ; preds = %37
  %49 = load ptr, ptr %18, align 8
  %50 = load ptr, ptr %19, align 8
  call void @_Z15tMPI_Return_reqP8req_listP9tmpi_req_(ptr noundef %49, ptr noundef %50)
  %51 = load ptr, ptr %14, align 8
  %52 = call noundef i32 @_Z10tMPI_ErrorP10tmpi_comm_i(ptr noundef %51, i32 noundef 16)
  store i32 %52, ptr %8, align 4
  br label %74

53:                                               ; preds = %37
  br label %54

54:                                               ; preds = %53, %34
  %55 = load ptr, ptr %16, align 8
  %56 = load ptr, ptr %14, align 8
  %57 = load ptr, ptr %20, align 8
  %58 = load ptr, ptr %9, align 8
  %59 = load i32, ptr %10, align 4
  %60 = load ptr, ptr %11, align 8
  %61 = load i32, ptr %13, align 4
  %62 = call noundef ptr @_Z20tMPI_Post_match_recvP11tmpi_threadP10tmpi_comm_S0_PviP14tmpi_datatype_ii(ptr noundef %55, ptr noundef %56, ptr noundef %57, ptr noundef %58, i32 noundef %59, ptr noundef %60, i32 noundef %61, i32 noundef 1)
  store ptr %62, ptr %21, align 8
  %63 = load ptr, ptr %21, align 8
  %64 = icmp eq ptr %63, null
  br i1 %64, label %65, label %66

65:                                               ; preds = %54
  store i32 20, ptr %8, align 4
  br label %74

66:                                               ; preds = %54
  %67 = load ptr, ptr %19, align 8
  %68 = load ptr, ptr %21, align 8
  call void @_Z13tMPI_Req_initP9tmpi_req_P8envelope(ptr noundef %67, ptr noundef %68)
  %69 = load ptr, ptr %19, align 8
  %70 = load ptr, ptr %15, align 8
  store ptr %69, ptr %70, align 8
  %71 = load ptr, ptr %21, align 8
  %72 = getelementptr inbounds %struct.envelope, ptr %71, i32 0, i32 9
  %73 = load i32, ptr %72, align 4
  store i32 %73, ptr %8, align 4
  br label %74

74:                                               ; preds = %66, %65, %48, %29
  %75 = load i32, ptr %8, align 4
  ret i32 %75
}