; Function Attrs: mustprogress uwtable
define noundef i32 @_Z10tMPI_IrecvPviP14tmpi_datatype_iiP10tmpi_comm_PP9tmpi_req_(ptr noundef %0, i32 noundef %1, ptr noundef %2, i32 noundef %3, i32 noundef %4, ptr noundef %5, ptr nocapture noundef writeonly %6) local_unnamed_addr #0 {
  %8 = tail call noundef ptr @_Z23tMPI_Thread_getspecific17tMPI_Thread_key_t(ptr noundef nonnull byval(%struct.tMPI_Thread_key_t) align 8 @id_key)
  %9 = getelementptr inbounds i8, ptr %8, i64 360
  %10 = tail call noundef ptr @_Z12tMPI_Get_reqP8req_list(ptr noundef nonnull %9)
  %.not = icmp eq ptr %5, null
  br i1 %.not, label %11, label %14

11:                                               ; preds = %7
  tail call void @_Z15tMPI_Return_reqP8req_listP9tmpi_req_(ptr noundef nonnull %9, ptr noundef %10)
  %12 = load ptr, ptr @TMPI_COMM_WORLD, align 8
  %13 = tail call noundef i32 @_Z10tMPI_ErrorP10tmpi_comm_i(ptr noundef %12, i32 noundef 6)
  br label %29

14:                                               ; preds = %7
  %.not30 = icmp eq i32 %3, -1
  br i1 %.not30, label %23, label %15

15:                                               ; preds = %14
  %16 = getelementptr inbounds i8, ptr %5, i64 8
  %17 = load ptr, ptr %16, align 8
  %18 = sext i32 %3 to i64
  %19 = getelementptr inbounds ptr, ptr %17, i64 %18
  %20 = load ptr, ptr %19, align 8
  %.not31 = icmp eq ptr %20, null
  br i1 %.not31, label %21, label %23

21:                                               ; preds = %15
  tail call void @_Z15tMPI_Return_reqP8req_listP9tmpi_req_(ptr noundef nonnull %9, ptr noundef %10)
  %22 = tail call noundef i32 @_Z10tMPI_ErrorP10tmpi_comm_i(ptr noundef nonnull %5, i32 noundef 16)
  br label %29

23:                                               ; preds = %15, %14
  %.025 = phi ptr [ %20, %15 ], [ null, %14 ]
  %24 = tail call noundef ptr @_Z20tMPI_Post_match_recvP11tmpi_threadP10tmpi_comm_S0_PviP14tmpi_datatype_ii(ptr noundef %8, ptr noundef nonnull %5, ptr noundef %.025, ptr noundef %0, i32 noundef %1, ptr noundef %2, i32 noundef %4, i32 noundef 1)
  %25 = icmp eq ptr %24, null
  br i1 %25, label %29, label %26

26:                                               ; preds = %23
  tail call void @_Z13tMPI_Req_initP9tmpi_req_P8envelope(ptr noundef %10, ptr noundef nonnull %24)
  store ptr %10, ptr %6, align 8
  %27 = getelementptr inbounds i8, ptr %24, i64 124
  %28 = load i32, ptr %27, align 4
  br label %29

29:                                               ; preds = %23, %26, %21, %11
  %.0 = phi i32 [ %28, %26 ], [ %22, %21 ], [ %13, %11 ], [ 20, %23 ]
  ret i32 %.0
}